target datalayout = "e-m:e-p270:32:32-p271:32:32-p272:64:64-i64:64-i128:128-f80:128-n8:16:32:64-S128"
target triple = "x86_64-pc-linux-gnu"

@.str.1 = private unnamed_addr constant [1 x i8] zeroinitializer, align 1
@.str.45 = private unnamed_addr constant [2 x i8] c" \00", align 1
@.str.46 = private unnamed_addr constant [5 x i8] c"%12s\00", align 1
@.str.48 = private unnamed_addr constant [2 x i8] c"B\00", align 1
@.str.49 = private unnamed_addr constant [12 x i8] c"%lld   %-3s\00", align 1
@.str.50 = private unnamed_addr constant [2 x i8] c"K\00", align 1
@.str.51 = private unnamed_addr constant [2 x i8] c"M\00", align 1
@.str.52 = private unnamed_addr constant [2 x i8] c"G\00", align 1
@.str.53 = private unnamed_addr constant [7 x i8] c"%s%s%s\00", align 1
@.str.54 = private unnamed_addr constant [2 x i8] c"i\00", align 1
@.str.55 = private unnamed_addr constant [13 x i8] c"%ld.%ld %-3s\00", align 1

; Function Attrs: nounwind uwtable
define internal void @mi_printf_amount(i64 noundef %0, i64 noundef %1, ptr noundef %2, ptr noundef %3, ptr noundef %4) #0 {
  %6 = alloca i64, align 8
  %7 = alloca i64, align 8
  %8 = alloca ptr, align 8
  %9 = alloca ptr, align 8
  %10 = alloca ptr, align 8
  %11 = alloca [32 x i8], align 16
  %12 = alloca i32, align 4
  %13 = alloca ptr, align 8
  %14 = alloca i64, align 8
  %15 = alloca i64, align 8
  %16 = alloca i64, align 8
  %17 = alloca ptr, align 8
  %18 = alloca i64, align 8
  %19 = alloca i64, align 8
  %20 = alloca i64, align 8
  %21 = alloca [8 x i8], align 1
  store i64 %0, ptr %6, align 8, !tbaa !8
  store i64 %1, ptr %7, align 8, !tbaa !8
  store ptr %2, ptr %8, align 8, !tbaa !13
  store ptr %3, ptr %9, align 8, !tbaa !13
  store ptr %4, ptr %10, align 8, !tbaa !54
  call void @llvm.lifetime.start.p0(i64 32, ptr %11) #7
  %22 = getelementptr inbounds [32 x i8], ptr %11, i64 0, i64 0
  store i8 0, ptr %22, align 16, !tbaa !57
  call void @llvm.lifetime.start.p0(i64 4, ptr %12) #7
  store i32 32, ptr %12, align 4, !tbaa !59
  call void @llvm.lifetime.start.p0(i64 8, ptr %13) #7
  %23 = load i64, ptr %7, align 8, !tbaa !8
  %24 = icmp sle i64 %23, 0
  %25 = select i1 %24, ptr @.str.45, ptr @.str.48
  store ptr %25, ptr %13, align 8, !tbaa !54
  call void @llvm.lifetime.start.p0(i64 8, ptr %14) #7
  %26 = load i64, ptr %7, align 8, !tbaa !8
  %27 = icmp eq i64 %26, 0
  %28 = select i1 %27, i32 1000, i32 1024
  %29 = sext i32 %28 to i64
  store i64 %29, ptr %14, align 8, !tbaa !8
  %30 = load i64, ptr %7, align 8, !tbaa !8
  %31 = icmp sgt i64 %30, 0
  br i1 %31, label %32, label %36

32:                                               ; preds = %5
  %33 = load i64, ptr %7, align 8, !tbaa !8
  %34 = load i64, ptr %6, align 8, !tbaa !8
  %35 = mul nsw i64 %34, %33
  store i64 %35, ptr %6, align 8, !tbaa !8
  br label %36

36:                                               ; preds = %32, %5
  call void @llvm.lifetime.start.p0(i64 8, ptr %15) #7
  %37 = load i64, ptr %6, align 8, !tbaa !8
  %38 = icmp slt i64 %37, 0
  br i1 %38, label %39, label %42

39:                                               ; preds = %36
  %40 = load i64, ptr %6, align 8, !tbaa !8
  %41 = sub nsw i64 0, %40
  br label %44

42:                                               ; preds = %36
  %43 = load i64, ptr %6, align 8, !tbaa !8
  br label %44

44:                                               ; preds = %42, %39
  %45 = phi i64 [ %41, %39 ], [ %43, %42 ]
  store i64 %45, ptr %15, align 8, !tbaa !8
  %46 = load i64, ptr %15, align 8, !tbaa !8
  %47 = load i64, ptr %14, align 8, !tbaa !8
  %48 = icmp slt i64 %46, %47
  br i1 %48, label %49, label %72

49:                                               ; preds = %44
  %50 = load i64, ptr %6, align 8, !tbaa !8
  %51 = icmp ne i64 %50, 1
  br i1 %51, label %58, label %52

52:                                               ; preds = %49
  %53 = load ptr, ptr %13, align 8, !tbaa !54
  %54 = getelementptr inbounds i8, ptr %53, i64 0
  %55 = load i8, ptr %54, align 1, !tbaa !57
  %56 = sext i8 %55 to i32
  %57 = icmp ne i32 %56, 66
  br i1 %57, label %58, label %71

58:                                               ; preds = %52, %49
  %59 = getelementptr inbounds [32 x i8], ptr %11, i64 0, i64 0
  %60 = load i32, ptr %12, align 4, !tbaa !59
  %61 = sext i32 %60 to i64
  %62 = load i64, ptr %6, align 8, !tbaa !8
  %63 = load i64, ptr %6, align 8, !tbaa !8
  %64 = icmp eq i64 %63, 0
  br i1 %64, label %65, label %66

65:                                               ; preds = %58
  br label %68

66:                                               ; preds = %58
  %67 = load ptr, ptr %13, align 8, !tbaa !54
  br label %68

68:                                               ; preds = %66, %65
  %69 = phi ptr [ @.str.1, %65 ], [ %67, %66 ]
  %70 = call i32 (ptr, i64, ptr, ...) @_mi_snprintf(ptr noundef %59, i64 noundef %61, ptr noundef @.str.49, i64 noundef %62, ptr noundef %69) #6
  br label %71

71:                                               ; preds = %68, %52
  br label %124

72:                                               ; preds = %44
  call void @llvm.lifetime.start.p0(i64 8, ptr %16) #7
  %73 = load i64, ptr %14, align 8, !tbaa !8
  store i64 %73, ptr %16, align 8, !tbaa !8
  call void @llvm.lifetime.start.p0(i64 8, ptr %17) #7
  store ptr @.str.50, ptr %17, align 8, !tbaa !54
  %74 = load i64, ptr %15, align 8, !tbaa !8
  %75 = load i64, ptr %16, align 8, !tbaa !8
  %76 = load i64, ptr %14, align 8, !tbaa !8
  %77 = mul nsw i64 %75, %76
  %78 = icmp sge i64 %74, %77
  br i1 %78, label %79, label %83

79:                                               ; preds = %72
  %80 = load i64, ptr %14, align 8, !tbaa !8
  %81 = load i64, ptr %16, align 8, !tbaa !8
  %82 = mul nsw i64 %81, %80
  store i64 %82, ptr %16, align 8, !tbaa !8
  store ptr @.str.51, ptr %17, align 8, !tbaa !54
  br label %83

83:                                               ; preds = %79, %72
  %84 = load i64, ptr %15, align 8, !tbaa !8
  %85 = load i64, ptr %16, align 8, !tbaa !8
  %86 = load i64, ptr %14, align 8, !tbaa !8
  %87 = mul nsw i64 %85, %86
  %88 = icmp sge i64 %84, %87
  br i1 %88, label %89, label %93

89:                                               ; preds = %83
  %90 = load i64, ptr %14, align 8, !tbaa !8
  %91 = load i64, ptr %16, align 8, !tbaa !8
  %92 = mul nsw i64 %91, %90
  store i64 %92, ptr %16, align 8, !tbaa !8
  store ptr @.str.52, ptr %17, align 8, !tbaa !54
  br label %93

93:                                               ; preds = %89, %83
  call void @llvm.lifetime.start.p0(i64 8, ptr %18) #7
  %94 = load i64, ptr %6, align 8, !tbaa !8
  %95 = load i64, ptr %16, align 8, !tbaa !8
  %96 = sdiv i64 %95, 10
  %97 = sdiv i64 %94, %96
  store i64 %97, ptr %18, align 8, !tbaa !8
  call void @llvm.lifetime.start.p0(i64 8, ptr %19) #7
  %98 = load i64, ptr %18, align 8, !tbaa !8
  %99 = sdiv i64 %98, 10
  store i64 %99, ptr %19, align 8, !tbaa !8
  call void @llvm.lifetime.start.p0(i64 8, ptr %20) #7
  %100 = load i64, ptr %18, align 8, !tbaa !8
  %101 = srem i64 %100, 10
  store i64 %101, ptr %20, align 8, !tbaa !8
  call void @llvm.lifetime.start.p0(i64 8, ptr %21) #7
  %102 = getelementptr inbounds [8 x i8], ptr %21, i64 0, i64 0
  %103 = load ptr, ptr %17, align 8, !tbaa !54
  %104 = load i64, ptr %14, align 8, !tbaa !8
  %105 = icmp eq i64 %104, 1024
  %106 = select i1 %105, ptr @.str.54, ptr @.str.1
  %107 = load ptr, ptr %13, align 8, !tbaa !54
  %108 = call i32 (ptr, i64, ptr, ...) @_mi_snprintf(ptr noundef %102, i64 noundef 8, ptr noundef @.str.53, ptr noundef %103, ptr noundef %106, ptr noundef %107) #6
  %109 = getelementptr inbounds [32 x i8], ptr %11, i64 0, i64 0
  %110 = load i32, ptr %12, align 4, !tbaa !59
  %111 = sext i32 %110 to i64
  %112 = load i64, ptr %19, align 8, !tbaa !8
  %113 = load i64, ptr %20, align 8, !tbaa !8
  %114 = icmp slt i64 %113, 0
  br i1 %114, label %115, label %118

115:                                              ; preds = %93
  %116 = load i64, ptr %20, align 8, !tbaa !8
  %117 = sub nsw i64 0, %116
  br label %120

118:                                              ; preds = %93
  %119 = load i64, ptr %20, align 8, !tbaa !8
  br label %120

120:                                              ; preds = %118, %115
  %121 = phi i64 [ %117, %115 ], [ %119, %118 ]
  %122 = getelementptr inbounds [8 x i8], ptr %21, i64 0, i64 0
  %123 = call i32 (ptr, i64, ptr, ...) @_mi_snprintf(ptr noundef %109, i64 noundef %111, ptr noundef @.str.55, i64 noundef %112, i64 noundef %121, ptr noundef %122) #6
  call void @llvm.lifetime.end.p0(i64 8, ptr %21) #7
  call void @llvm.lifetime.end.p0(i64 8, ptr %20) #7
  call void @llvm.lifetime.end.p0(i64 8, ptr %19) #7
  call void @llvm.lifetime.end.p0(i64 8, ptr %18) #7
  call void @llvm.lifetime.end.p0(i64 8, ptr %17) #7
  call void @llvm.lifetime.end.p0(i64 8, ptr %16) #7
  br label %124

124:                                              ; preds = %120, %71
  %125 = load ptr, ptr %8, align 8, !tbaa !13
  %126 = load ptr, ptr %9, align 8, !tbaa !13
  %127 = load ptr, ptr %10, align 8, !tbaa !54
  %128 = icmp eq ptr %127, null
  br i1 %128, label %129, label %130

129:                                              ; preds = %124
  br label %132

130:                                              ; preds = %124
  %131 = load ptr, ptr %10, align 8, !tbaa !54
  br label %132

132:                                              ; preds = %130, %129
  %133 = phi ptr [ @.str.46, %129 ], [ %131, %130 ]
  %134 = getelementptr inbounds [32 x i8], ptr %11, i64 0, i64 0
  call void (ptr, ptr, ptr, ...) @_mi_fprintf(ptr noundef %125, ptr noundef %126, ptr noundef %133, ptr noundef %134) #6
  call void @llvm.lifetime.end.p0(i64 8, ptr %15) #7
  call void @llvm.lifetime.end.p0(i64 8, ptr %14) #7
  call void @llvm.lifetime.end.p0(i64 8, ptr %13) #7
  call void @llvm.lifetime.end.p0(i64 4, ptr %12) #7
  call void @llvm.lifetime.end.p0(i64 32, ptr %11) #7
  ret void
}