; Function Attrs: nounwind uwtable
define internal fastcc void @mi_printf_amount(i64 noundef %0, i64 noundef range(i64 -1, 2) %1, ptr noundef nonnull %2, ptr noundef %3) unnamed_addr #2 {
  %5 = alloca [32 x i8], align 16
  %6 = alloca [8 x i8], align 1
  call void @llvm.lifetime.start.p0(i64 32, ptr nonnull %5) #10
  store i8 0, ptr %5, align 16, !tbaa !41
  %7 = icmp slt i64 %1, 1
  %8 = select i1 %7, ptr @.str.45, ptr @.str.48
  %.not51 = icmp eq i64 %1, 0
  %9 = select i1 %.not51, i64 1000, i64 1024
  %10 = tail call i64 @llvm.abs.i64(i64 %0, i1 true)
  %11 = icmp samesign ult i64 %10, %9
  br i1 %11, label %12, label %18

12:                                               ; preds = %4
  %.not52 = icmp eq i64 %0, 1
  %13 = load i8, ptr %8, align 1
  %.not53 = icmp eq i8 %13, 66
  %or.cond = select i1 %.not52, i1 %.not53, i1 false
  br i1 %or.cond, label %29, label %14

14:                                               ; preds = %12
  %15 = icmp eq i64 %0, 0
  %16 = select i1 %15, ptr @.str.1, ptr %8
  %17 = call i32 (ptr, i64, ptr, ...) @_mi_snprintf(ptr noundef nonnull %5, i64 noundef 32, ptr noundef nonnull @.str.49, i64 noundef %0, ptr noundef nonnull %16) #8
  br label %29

18:                                               ; preds = %4
  %19 = select i1 %.not51, i64 1000000, i64 1048576
  %.not = icmp samesign ult i64 %10, %19
  %spec.select = select i1 %.not, ptr @.str.50, ptr @.str.51
  %spec.select54 = select i1 %.not, i64 %9, i64 %19
  %20 = mul nuw nsw i64 %spec.select54, %9
  %.not50 = icmp samesign ult i64 %10, %20
  %.144 = select i1 %.not50, ptr %spec.select, ptr @.str.52
  %.1 = select i1 %.not50, i64 %spec.select54, i64 %20
  %.lhs.trunc = trunc nuw nsw i64 %.1 to i32
  %21 = udiv i32 %.lhs.trunc, 10
  %.zext = zext nneg i32 %21 to i64
  %22 = sdiv i64 %0, %.zext
  %23 = sdiv i64 %22, 10
  %24 = srem i64 %22, 10
  call void @llvm.lifetime.start.p0(i64 8, ptr nonnull %6) #10
  %25 = select i1 %.not51, ptr @.str.1, ptr @.str.54
  %26 = call i32 (ptr, i64, ptr, ...) @_mi_snprintf(ptr noundef nonnull %6, i64 noundef 8, ptr noundef nonnull @.str.53, ptr noundef nonnull %.144, ptr noundef nonnull %25, ptr noundef nonnull %8) #8
  %27 = call i64 @llvm.abs.i64(i64 %24, i1 true)
  %28 = call i32 (ptr, i64, ptr, ...) @_mi_snprintf(ptr noundef nonnull %5, i64 noundef 32, ptr noundef nonnull @.str.55, i64 noundef %23, i64 noundef %27, ptr noundef nonnull %6) #8
  call void @llvm.lifetime.end.p0(i64 8, ptr nonnull %6) #10
  br label %29

29:                                               ; preds = %12, %14, %18
  %30 = icmp eq ptr %3, null
  %31 = select i1 %30, ptr @.str.46, ptr %3
  call void (ptr, ptr, ptr, ...) @_mi_fprintf(ptr noundef nonnull @mi_buffered_out, ptr noundef nonnull %2, ptr noundef nonnull %31, ptr noundef nonnull %5) #8
  call void @llvm.lifetime.end.p0(i64 32, ptr nonnull %5) #10
  ret void
}